target datalayout = "e-m:e-p270:32:32-p271:32:32-p272:64:64-i64:64-i128:128-f80:128-n8:16:32:64-S128"
target triple = "x86_64-pc-linux-gnu"

%class.rfb_t = type { %class.device_t, i32, i32, ptr, i64, i16, i16, i16, i32, i64, ptr, ptr, i64, %union.pthread_mutex_t }
%class.device_t = type { ptr, %"class.std::vector", %"class.std::vector.0" }
%"class.std::vector" = type { %"struct.std::_Vector_base" }
%"struct.std::_Vector_base" = type { %"struct.std::_Vector_base<std::function<void (command_t)>, std::allocator<std::function<void (command_t)>>>::_Vector_impl" }
%"struct.std::_Vector_base<std::function<void (command_t)>, std::allocator<std::function<void (command_t)>>>::_Vector_impl" = type { %"struct.std::_Vector_base<std::function<void (command_t)>, std::allocator<std::function<void (command_t)>>>::_Vector_impl_data" }
%"struct.std::_Vector_base<std::function<void (command_t)>, std::allocator<std::function<void (command_t)>>>::_Vector_impl_data" = type { ptr, ptr, ptr }
%"class.std::vector.0" = type { %"struct.std::_Vector_base.1" }
%"struct.std::_Vector_base.1" = type { %"struct.std::_Vector_base<std::__cxx11::basic_string<char>, std::allocator<std::__cxx11::basic_string<char>>>::_Vector_impl" }
%"struct.std::_Vector_base<std::__cxx11::basic_string<char>, std::allocator<std::__cxx11::basic_string<char>>>::_Vector_impl" = type { %"struct.std::_Vector_base<std::__cxx11::basic_string<char>, std::allocator<std::__cxx11::basic_string<char>>>::_Vector_impl_data" }
%"struct.std::_Vector_base<std::__cxx11::basic_string<char>, std::allocator<std::__cxx11::basic_string<char>>>::_Vector_impl_data" = type { ptr, ptr, ptr }
%union.pthread_mutex_t = type { %struct.__pthread_mutex_s }
%struct.__pthread_mutex_s = type { i32, i32, i32, i32, i32, i16, i16, %struct.__pthread_internal_list }
%struct.__pthread_internal_list = type { ptr, ptr }

@_ZTV5rfb_t = unnamed_addr constant { [6 x ptr] } { [6 x ptr] [ptr null, ptr @_ZTI5rfb_t, ptr @_ZN5rfb_tD1Ev, ptr @_ZN5rfb_tD0Ev, ptr @_ZN5rfb_t8identityEv, ptr @_ZN5rfb_t4tickEv] }, align 8

; Function Attrs: mustprogress nounwind uwtable
define void @_ZN5rfb_tD2Ev(ptr noundef nonnull align 8 dereferenceable(168) %0) unnamed_addr #4 align 2 personality ptr @__gxx_personality_v0 {
  %2 = alloca ptr, align 8
  store ptr %0, ptr %2, align 8
  %3 = load ptr, ptr %2, align 8
  store ptr getelementptr inbounds ({ [6 x ptr] }, ptr @_ZTV5rfb_t, i32 0, i32 0, i32 2), ptr %3, align 8
  %4 = getelementptr inbounds %class.rfb_t, ptr %3, i32 0, i32 3
  store ptr null, ptr %4, align 8
  %5 = call i64 @pthread_self() #13
  %6 = getelementptr inbounds %class.rfb_t, ptr %3, i32 0, i32 9
  %7 = load i64, ptr %6, align 8
  %8 = call i32 @pthread_equal(i64 noundef %5, i64 noundef %7) #13
  %9 = icmp ne i32 %8, 0
  br i1 %9, label %15, label %10

10:                                               ; preds = %1
  %11 = getelementptr inbounds %class.rfb_t, ptr %3, i32 0, i32 9
  %12 = load i64, ptr %11, align 8
  %13 = invoke i32 @pthread_join(i64 noundef %12, ptr noundef null)
          to label %14 unwind label %26

14:                                               ; preds = %10
  br label %15

15:                                               ; preds = %14, %1
  %16 = getelementptr inbounds %class.rfb_t, ptr %3, i32 0, i32 10
  %17 = load volatile ptr, ptr %16, align 8
  %18 = icmp eq ptr %17, null
  br i1 %18, label %20, label %19

19:                                               ; preds = %15
  call void @_ZdaPv(ptr noundef %17) #18
  br label %20

20:                                               ; preds = %19, %15
  %21 = getelementptr inbounds %class.rfb_t, ptr %3, i32 0, i32 11
  %22 = load volatile ptr, ptr %21, align 8
  %23 = icmp eq ptr %22, null
  br i1 %23, label %25, label %24

24:                                               ; preds = %20
  call void @_ZdaPv(ptr noundef %22) #18
  br label %25

25:                                               ; preds = %24, %20
  call void @_ZN8device_tD2Ev(ptr noundef nonnull align 8 dereferenceable(56) %3) #14
  ret void

26:                                               ; preds = %10
  %27 = landingpad { ptr, i32 }
          catch ptr null
  %28 = extractvalue { ptr, i32 } %27, 0
  call void @__clang_call_terminate(ptr %28) #17
  unreachable
}