; Function Attrs: mustprogress nounwind uwtable
define void @_ZN5rfb_tD2Ev(ptr noundef nonnull align 8 dereferenceable(168) %0) unnamed_addr #5 align 2 personality ptr @__gxx_personality_v0 {
  store ptr getelementptr inbounds ({ [6 x ptr] }, ptr @_ZTV5rfb_t, i64 0, i32 0, i64 2), ptr %0, align 8
  %2 = getelementptr inbounds i8, ptr %0, i64 64
  store ptr null, ptr %2, align 8
  %3 = tail call i64 @pthread_self() #20
  %4 = getelementptr inbounds i8, ptr %0, i64 96
  %5 = load i64, ptr %4, align 8
  %6 = tail call i32 @pthread_equal(i64 noundef %3, i64 noundef %5) #20
  %.not = icmp eq i32 %6, 0
  br i1 %.not, label %7, label %9

7:                                                ; preds = %1
  %8 = invoke i32 @pthread_join(i64 noundef %5, ptr noundef null)
          to label %9 unwind label %20

9:                                                ; preds = %7, %1
  %10 = getelementptr inbounds i8, ptr %0, i64 104
  %11 = load volatile ptr, ptr %10, align 8
  %12 = icmp eq ptr %11, null
  br i1 %12, label %14, label %13

13:                                               ; preds = %9
  tail call void @_ZdaPv(ptr noundef nonnull %11) #25
  br label %14

14:                                               ; preds = %13, %9
  %15 = getelementptr inbounds i8, ptr %0, i64 112
  %16 = load volatile ptr, ptr %15, align 8
  %17 = icmp eq ptr %16, null
  br i1 %17, label %19, label %18

18:                                               ; preds = %14
  tail call void @_ZdaPv(ptr noundef nonnull %16) #25
  br label %19

19:                                               ; preds = %18, %14
  tail call void @_ZN8device_tD2Ev(ptr noundef nonnull align 8 dereferenceable(56) %0) #23
  ret void

20:                                               ; preds = %7
  %21 = landingpad { ptr, i32 }
          catch ptr null
  %22 = extractvalue { ptr, i32 } %21, 0
  tail call void @__clang_call_terminate(ptr %22) #22
  unreachable
}